; Function Attrs: mustprogress uwtable
define noundef i32 @_Z21tMPI_Thread_cond_waitP18tMPI_Thread_cond_tP19tMPI_Thread_mutex_t(ptr nocapture noundef %0, ptr nocapture noundef readonly %1) local_unnamed_addr #4 {
  %3 = load i32, ptr %0, align 8
  %4 = icmp eq i32 %3, 0
  br i1 %4, label %5, label %19

5:                                                ; preds = %2
  %6 = tail call i32 @pthread_mutex_lock(ptr noundef nonnull @_ZL9cond_init) #13
  %.not.i = icmp eq i32 %6, 0
  br i1 %.not.i, label %7, label %_ZL26tMPI_Thread_cond_init_onceP18tMPI_Thread_cond_t.exit.thread

7:                                                ; preds = %5
  %8 = getelementptr inbounds i8, ptr %0, i64 64
  %9 = load ptr, ptr %8, align 8
  %10 = icmp eq ptr %9, null
  br i1 %10, label %11, label %_ZL26tMPI_Thread_cond_init_onceP18tMPI_Thread_cond_t.exit

11:                                               ; preds = %7
  %12 = tail call noalias dereferenceable_or_null(48) ptr @malloc(i64 noundef 48) #14
  store ptr %12, ptr %8, align 8
  %13 = icmp eq ptr %12, null
  br i1 %13, label %16, label %14

14:                                               ; preds = %11
  %15 = tail call i32 @pthread_cond_init(ptr noundef nonnull %12, ptr noundef null) #13
  %.not13.i = icmp eq i32 %15, 0
  br i1 %.not13.i, label %_ZL26tMPI_Thread_cond_init_onceP18tMPI_Thread_cond_t.exit, label %16

16:                                               ; preds = %14, %11
  %.0.i = phi i32 [ %15, %14 ], [ 12, %11 ]
  %17 = tail call i32 @pthread_mutex_unlock(ptr noundef nonnull @_ZL9cond_init) #13
  br label %_ZL26tMPI_Thread_cond_init_onceP18tMPI_Thread_cond_t.exit.thread

_ZL26tMPI_Thread_cond_init_onceP18tMPI_Thread_cond_t.exit: ; preds = %7, %14
  %18 = tail call i32 @pthread_mutex_unlock(ptr noundef nonnull @_ZL9cond_init) #13
  %.not = icmp eq i32 %18, 0
  br i1 %.not, label %19, label %_ZL26tMPI_Thread_cond_init_onceP18tMPI_Thread_cond_t.exit.thread

19:                                               ; preds = %_ZL26tMPI_Thread_cond_init_onceP18tMPI_Thread_cond_t.exit, %2
  %20 = getelementptr inbounds i8, ptr %0, i64 64
  %21 = load ptr, ptr %20, align 8
  %22 = getelementptr inbounds i8, ptr %1, i64 64
  %23 = load ptr, ptr %22, align 8
  %24 = tail call i32 @pthread_cond_wait(ptr noundef %21, ptr noundef %23)
  br label %_ZL26tMPI_Thread_cond_init_onceP18tMPI_Thread_cond_t.exit.thread

_ZL26tMPI_Thread_cond_init_onceP18tMPI_Thread_cond_t.exit.thread: ; preds = %5, %16, %_ZL26tMPI_Thread_cond_init_onceP18tMPI_Thread_cond_t.exit, %19
  %.0 = phi i32 [ %24, %19 ], [ %18, %_ZL26tMPI_Thread_cond_init_onceP18tMPI_Thread_cond_t.exit ], [ %6, %5 ], [ %.0.i, %16 ]
  ret i32 %.0
}